(lp0
(lp1
F0.12214303016662598
aF0.23185205459594727
aF0.09577202796936035
aF0.1069939136505127
aF0.1890709400177002
aF0.2169041633605957
aF0.07779192924499512
aF0.20854496955871582
aF0.14336109161376953
aF0.17596006393432617
aF0.15599298477172852
aF0.308276891708374
aF0.09386801719665527
aF0.09885692596435547
aF0.12396001815795898
aa(lp2
F0.16627001762390137
aF0.15194106101989746
aF0.10030794143676758
aF0.11484813690185547
aF0.26991796493530273
aF0.41486382484436035
aF0.10571098327636719
aF0.23845720291137695
aF0.20552802085876465
aF0.17049884796142578
aF0.11535906791687012
aF0.20616388320922852
aF0.10097813606262207
aF0.10839104652404785
aF0.10394978523254395
aa(lp3
F0.18768596649169922
aF0.18296098709106445
aF0.0960230827331543
aF0.08494400978088379
aF0.180588960647583
aF0.24268293380737305
aF0.04277205467224121
aF0.24427294731140137
aF0.1585381031036377
aF0.17699098587036133
aF0.08184599876403809
aF0.1947028636932373
aF0.08194994926452637
aF0.08955001831054688
aF0.08804702758789062
aa.