(lp0
(lp1
F0.13577985763549805
aF0.3650341033935547
aF0.17540502548217773
aF0.2595839500427246
aF0.5654520988464355
aF0.12668585777282715
aF0.17311811447143555
aF0.14700794219970703
aF0.2741730213165283
aF0.12198591232299805
aF0.1595439910888672
aF0.13157415390014648
aF0.13231492042541504
aF0.31467700004577637
aF0.42435598373413086
aa(lp2
F0.17548298835754395
aF0.40221095085144043
aF0.24522900581359863
aF0.2763631343841553
aF0.3507728576660156
aF0.22023415565490723
aF0.2181699275970459
aF0.18919706344604492
aF0.36046290397644043
aF0.24259305000305176
aF0.15219402313232422
aF0.19699382781982422
aF0.20160198211669922
aF0.35452914237976074
aF0.20218992233276367
aa(lp3
F0.17913389205932617
aF0.4571969509124756
aF0.23213601112365723
aF0.2136991024017334
aF0.45073604583740234
aF0.14582395553588867
aF0.20575594902038574
aF0.25522589683532715
aF0.42635011672973633
aF0.16949987411499023
aF0.19832706451416016
aF0.22135400772094727
aF0.23040509223937988
aF0.33688998222351074
aF0.24675202369689941
aa.