(lp0
(lp1
F0.10688591003417969
aF0.11828398704528809
aF0.09069395065307617
aF0.09685897827148438
aF0.2890160083770752
aF0.40398216247558594
aF0.3539550304412842
aF0.08669495582580566
aF0.1085200309753418
aF0.3063068389892578
aF0.1079721450805664
aF0.10822391510009766
aF0.059339046478271484
aF0.08852601051330566
aF0.09858202934265137
aa(lp2
F0.08933806419372559
aF0.14409089088439941
aF0.08484697341918945
aF0.06721901893615723
aF0.13806700706481934
aF0.2128438949584961
aF0.13323116302490234
aF0.0875248908996582
aF0.15823006629943848
aF0.13615989685058594
aF0.1218571662902832
aF0.10668802261352539
aF0.0589449405670166
aF0.07875394821166992
aF0.10853409767150879
aa(lp3
F0.10926008224487305
aF0.13222193717956543
aF0.0865931510925293
aF0.06717085838317871
aF0.3141319751739502
aF0.1492311954498291
aF0.15076589584350586
aF0.08599090576171875
aF0.1182861328125
aF0.1954948902130127
aF0.11049199104309082
aF0.11061215400695801
aF0.06656694412231445
aF0.06889200210571289
aF0.1087179183959961
aa.