(lp0
(lp1
F0.21247100830078125
aF0.16885113716125488
aF0.26494693756103516
aF0.1128690242767334
aF0.29222702980041504
aF0.12670087814331055
aF0.24264812469482422
aF0.08324408531188965
aF0.1381227970123291
aF0.15922307968139648
aF0.13792800903320312
aF0.13523602485656738
aF0.1155998706817627
aF0.13417601585388184
aF0.11106419563293457
aa(lp2
F0.0974130630493164
aF0.13619589805603027
aF0.20208501815795898
aF0.11291813850402832
aF0.1514298915863037
aF0.11011600494384766
aF0.19991707801818848
aF0.11883306503295898
aF0.13857483863830566
aF0.14205718040466309
aF0.13562798500061035
aF0.12814688682556152
aF0.09928202629089355
aF0.12119698524475098
aF0.09744000434875488
aa(lp3
F0.10156106948852539
aF0.10924196243286133
aF0.2313539981842041
aF0.12626886367797852
aF0.1765282154083252
aF0.1670668125152588
aF0.22530698776245117
aF0.10460805892944336
aF0.15657997131347656
aF0.13361310958862305
aF0.16040301322937012
aF0.0985879898071289
aF0.11029291152954102
aF0.12793993949890137
aF0.1380290985107422
aa.